target datalayout = "e-m:e-p270:32:32-p271:32:32-p272:64:64-i64:64-i128:128-f80:128-n8:16:32:64-S128"
target triple = "x86_64-unknown-linux-gnu"

%struct.grpc_transport_one_way_stats = type { i64, i64, i64 }
%struct.gpr_timespec = type { i64, i32, i32 }
%struct.grpc_transport_stream_stats = type { %struct.grpc_transport_one_way_stats, %struct.grpc_transport_one_way_stats, %struct.gpr_timespec }

; Function Attrs: noreturn nounwind uwtable
define linkonce_odr hidden void @__clang_call_terminate(ptr noundef %0) #11 comdat {
  %2 = call ptr @__cxa_begin_catch(ptr %0) #3
  call void @_ZSt9terminatev() #17
  unreachable
}

; Function Attrs: mustprogress nounwind uwtable
define linkonce_odr { i64, i64 } @_ZSt10__exchangeI12gpr_timespecS0_ET_RS1_OT0_(ptr noundef nonnull align 8 dereferenceable(16) %__obj, ptr noundef nonnull align 8 dereferenceable(16) %__new_val) #5 comdat {
entry:
  %retval = alloca %struct.gpr_timespec, align 8
  %__obj.addr = alloca ptr, align 8
  %__new_val.addr = alloca ptr, align 8
  store ptr %__obj, ptr %__obj.addr, align 8
  store ptr %__new_val, ptr %__new_val.addr, align 8
  %0 = load ptr, ptr %__obj.addr, align 8
  call void @llvm.memcpy.p0.p0.i64(ptr align 8 %retval, ptr align 8 %0, i64 16, i1 false)
  %1 = load ptr, ptr %__new_val.addr, align 8
  %2 = load ptr, ptr %__obj.addr, align 8
  call void @llvm.memcpy.p0.p0.i64(ptr align 8 %2, ptr align 8 %1, i64 16, i1 false)
  %3 = load { i64, i64 }, ptr %retval, align 8
  ret { i64, i64 } %3
}

; Function Attrs: mustprogress nounwind uwtable
define internal void @_ZL10move64bitsPmS_(ptr noundef %from, ptr noundef %to) #5 {
entry:
  %from.addr = alloca ptr, align 8
  %to.addr = alloca ptr, align 8
  store ptr %from, ptr %from.addr, align 8
  store ptr %to, ptr %to.addr, align 8
  %0 = load ptr, ptr %from.addr, align 8
  %1 = load i64, ptr %0, align 8
  %2 = load ptr, ptr %to.addr, align 8
  %3 = load i64, ptr %2, align 8
  %add = add i64 %3, %1
  store i64 %add, ptr %2, align 8
  %4 = load ptr, ptr %from.addr, align 8
  store i64 0, ptr %4, align 8
  ret void
}

; Function Attrs: mustprogress nounwind uwtable
define linkonce_odr { i64, i64 } @_ZSt8exchangeI12gpr_timespecS0_ET_RS1_OT0_(ptr noundef nonnull align 8 dereferenceable(16) %__obj, ptr noundef nonnull align 8 dereferenceable(16) %__new_val) #5 comdat personality ptr @__gxx_personality_v0 {
entry:
  %retval = alloca %struct.gpr_timespec, align 8
  %__obj.addr = alloca ptr, align 8
  %__new_val.addr = alloca ptr, align 8
  store ptr %__obj, ptr %__obj.addr, align 8
  store ptr %__new_val, ptr %__new_val.addr, align 8
  %0 = load ptr, ptr %__obj.addr, align 8
  %1 = load ptr, ptr %__new_val.addr, align 8
  %call = invoke { i64, i64 } @_ZSt10__exchangeI12gpr_timespecS0_ET_RS1_OT0_(ptr noundef nonnull align 8 dereferenceable(16) %0, ptr noundef nonnull align 8 dereferenceable(16) %1)
          to label %invoke.cont unwind label %terminate.lpad

invoke.cont:                                      ; preds = %entry
  %2 = getelementptr inbounds { i64, i64 }, ptr %retval, i32 0, i32 0
  %3 = extractvalue { i64, i64 } %call, 0
  store i64 %3, ptr %2, align 8
  %4 = getelementptr inbounds { i64, i64 }, ptr %retval, i32 0, i32 1
  %5 = extractvalue { i64, i64 } %call, 1
  store i64 %5, ptr %4, align 8
  %6 = load { i64, i64 }, ptr %retval, align 8
  ret { i64, i64 } %6

terminate.lpad:                                   ; preds = %entry
  %7 = landingpad { ptr, i32 }
          catch ptr null
  %8 = extractvalue { ptr, i32 } %7, 0
  call void @__clang_call_terminate(ptr %8) #17
  unreachable
}

; Function Attrs: mustprogress uwtable
define void @_Z33grpc_transport_move_one_way_statsP28grpc_transport_one_way_statsS0_(ptr noundef %from, ptr noundef %to) #4 {
entry:
  %from.addr = alloca ptr, align 8
  %to.addr = alloca ptr, align 8
  store ptr %from, ptr %from.addr, align 8
  store ptr %to, ptr %to.addr, align 8
  %0 = load ptr, ptr %from.addr, align 8
  %framing_bytes = getelementptr inbounds %struct.grpc_transport_one_way_stats, ptr %0, i32 0, i32 0
  %1 = load ptr, ptr %to.addr, align 8
  %framing_bytes1 = getelementptr inbounds %struct.grpc_transport_one_way_stats, ptr %1, i32 0, i32 0
  call void @_ZL10move64bitsPmS_(ptr noundef %framing_bytes, ptr noundef %framing_bytes1)
  %2 = load ptr, ptr %from.addr, align 8
  %data_bytes = getelementptr inbounds %struct.grpc_transport_one_way_stats, ptr %2, i32 0, i32 1
  %3 = load ptr, ptr %to.addr, align 8
  %data_bytes2 = getelementptr inbounds %struct.grpc_transport_one_way_stats, ptr %3, i32 0, i32 1
  call void @_ZL10move64bitsPmS_(ptr noundef %data_bytes, ptr noundef %data_bytes2)
  %4 = load ptr, ptr %from.addr, align 8
  %header_bytes = getelementptr inbounds %struct.grpc_transport_one_way_stats, ptr %4, i32 0, i32 2
  %5 = load ptr, ptr %to.addr, align 8
  %header_bytes3 = getelementptr inbounds %struct.grpc_transport_one_way_stats, ptr %5, i32 0, i32 2
  call void @_ZL10move64bitsPmS_(ptr noundef %header_bytes, ptr noundef %header_bytes3)
  ret void
}

; Function Attrs: mustprogress uwtable
define void @_Z25grpc_transport_move_statsP27grpc_transport_stream_statsS0_(ptr noundef %from, ptr noundef %to) #4 {
entry:
  %from.addr = alloca ptr, align 8
  %to.addr = alloca ptr, align 8
  %ref.tmp = alloca %struct.gpr_timespec, align 8
  %ref.tmp3 = alloca %struct.gpr_timespec, align 8
  store ptr %from, ptr %from.addr, align 8
  store ptr %to, ptr %to.addr, align 8
  %0 = load ptr, ptr %from.addr, align 8
  %incoming = getelementptr inbounds %struct.grpc_transport_stream_stats, ptr %0, i32 0, i32 0
  %1 = load ptr, ptr %to.addr, align 8
  %incoming1 = getelementptr inbounds %struct.grpc_transport_stream_stats, ptr %1, i32 0, i32 0
  call void @_Z33grpc_transport_move_one_way_statsP28grpc_transport_one_way_statsS0_(ptr noundef %incoming, ptr noundef %incoming1)
  %2 = load ptr, ptr %from.addr, align 8
  %outgoing = getelementptr inbounds %struct.grpc_transport_stream_stats, ptr %2, i32 0, i32 1
  %3 = load ptr, ptr %to.addr, align 8
  %outgoing2 = getelementptr inbounds %struct.grpc_transport_stream_stats, ptr %3, i32 0, i32 1
  call void @_Z33grpc_transport_move_one_way_statsP28grpc_transport_one_way_statsS0_(ptr noundef %outgoing, ptr noundef %outgoing2)
  %4 = load ptr, ptr %from.addr, align 8
  %latency = getelementptr inbounds %struct.grpc_transport_stream_stats, ptr %4, i32 0, i32 2
  %call = call { i64, i64 } @gpr_inf_future(i32 noundef 3)
  %5 = getelementptr inbounds { i64, i64 }, ptr %ref.tmp3, i32 0, i32 0
  %6 = extractvalue { i64, i64 } %call, 0
  store i64 %6, ptr %5, align 8
  %7 = getelementptr inbounds { i64, i64 }, ptr %ref.tmp3, i32 0, i32 1
  %8 = extractvalue { i64, i64 } %call, 1
  store i64 %8, ptr %7, align 8
  %call4 = call { i64, i64 } @_ZSt8exchangeI12gpr_timespecS0_ET_RS1_OT0_(ptr noundef nonnull align 8 dereferenceable(16) %latency, ptr noundef nonnull align 8 dereferenceable(16) %ref.tmp3) #3
  %9 = getelementptr inbounds { i64, i64 }, ptr %ref.tmp, i32 0, i32 0
  %10 = extractvalue { i64, i64 } %call4, 0
  store i64 %10, ptr %9, align 8
  %11 = getelementptr inbounds { i64, i64 }, ptr %ref.tmp, i32 0, i32 1
  %12 = extractvalue { i64, i64 } %call4, 1
  store i64 %12, ptr %11, align 8
  %13 = load ptr, ptr %to.addr, align 8
  %latency5 = getelementptr inbounds %struct.grpc_transport_stream_stats, ptr %13, i32 0, i32 2
  call void @llvm.memcpy.p0.p0.i64(ptr align 8 %latency5, ptr align 8 %ref.tmp, i64 16, i1 false)
  ret void
}