; Function Attrs: mustprogress uwtable
define void @_Z25grpc_transport_move_statsP27grpc_transport_stream_statsS0_(ptr nocapture noundef %from, ptr nocapture noundef %to) local_unnamed_addr #5 personality ptr @__gxx_personality_v0 {
entry:
  %0 = load i64, ptr %from, align 8
  %1 = load i64, ptr %to, align 8
  %add.i.i = add i64 %1, %0
  store i64 %add.i.i, ptr %to, align 8
  store i64 0, ptr %from, align 8
  %data_bytes.i = getelementptr inbounds i8, ptr %from, i64 8
  %data_bytes2.i = getelementptr inbounds i8, ptr %to, i64 8
  %2 = load i64, ptr %data_bytes.i, align 8
  %3 = load i64, ptr %data_bytes2.i, align 8
  %add.i5.i = add i64 %3, %2
  store i64 %add.i5.i, ptr %data_bytes2.i, align 8
  store i64 0, ptr %data_bytes.i, align 8
  %header_bytes.i = getelementptr inbounds i8, ptr %from, i64 16
  %header_bytes3.i = getelementptr inbounds i8, ptr %to, i64 16
  %4 = load i64, ptr %header_bytes.i, align 8
  %5 = load i64, ptr %header_bytes3.i, align 8
  %add.i6.i = add i64 %5, %4
  store i64 %add.i6.i, ptr %header_bytes3.i, align 8
  store i64 0, ptr %header_bytes.i, align 8
  %outgoing = getelementptr inbounds i8, ptr %from, i64 24
  %outgoing2 = getelementptr inbounds i8, ptr %to, i64 24
  %6 = load i64, ptr %outgoing, align 8
  %7 = load i64, ptr %outgoing2, align 8
  %add.i.i5 = add i64 %7, %6
  store i64 %add.i.i5, ptr %outgoing2, align 8
  store i64 0, ptr %outgoing, align 8
  %data_bytes.i6 = getelementptr inbounds i8, ptr %from, i64 32
  %data_bytes2.i7 = getelementptr inbounds i8, ptr %to, i64 32
  %8 = load i64, ptr %data_bytes.i6, align 8
  %9 = load i64, ptr %data_bytes2.i7, align 8
  %add.i5.i8 = add i64 %9, %8
  store i64 %add.i5.i8, ptr %data_bytes2.i7, align 8
  store i64 0, ptr %data_bytes.i6, align 8
  %header_bytes.i9 = getelementptr inbounds i8, ptr %from, i64 40
  %header_bytes3.i10 = getelementptr inbounds i8, ptr %to, i64 40
  %10 = load i64, ptr %header_bytes.i9, align 8
  %11 = load i64, ptr %header_bytes3.i10, align 8
  %add.i6.i11 = add i64 %11, %10
  store i64 %add.i6.i11, ptr %header_bytes3.i10, align 8
  store i64 0, ptr %header_bytes.i9, align 8
  %latency = getelementptr inbounds i8, ptr %from, i64 48
  %call = tail call { i64, i64 } @gpr_inf_future(i32 noundef 3)
  %12 = extractvalue { i64, i64 } %call, 0
  %13 = extractvalue { i64, i64 } %call, 1
  %retval.sroa.2.0.__obj.addr.0..sroa_idx.i.i = getelementptr inbounds i8, ptr %from, i64 56
  %latency5 = getelementptr inbounds i8, ptr %to, i64 48
  %14 = load <2 x i64>, ptr %latency, align 8
  store i64 %12, ptr %latency, align 8
  store i64 %13, ptr %retval.sroa.2.0.__obj.addr.0..sroa_idx.i.i, align 8
  store <2 x i64> %14, ptr %latency5, align 8
  ret void
}